; Function Attrs: mustprogress nofree norecurse nosync nounwind willreturn memory(read, inaccessiblemem: none) uwtable
define hidden noundef signext i16 @_ZN34jdk_internal_foreign_abi_VMStorage20segment_mask_or_sizeEP7oopDesc(ptr noundef %0) local_unnamed_addr #8 align 2 {
  %2 = load i32, ptr @_ZN34jdk_internal_foreign_abi_VMStorage25_segmentMaskOrSize_offsetE, align 4
  %3 = ptrtoint ptr %0 to i64
  %4 = sext i32 %2 to i64
  %5 = add nsw i64 %4, %3
  %6 = inttoptr i64 %5 to ptr
  %7 = load i16, ptr %6, align 2
  ret i16 %7
}